; ModuleID = '40/1982.c'
source_filename = "40/1982.c"
target datalayout = "e-m:e-p270:32:32-p271:32:32-p272:64:64-i64:64-f80:128-n8:16:32:64-S128"
target triple = "x86_64-pc-linux-gnu"

@.str = private unnamed_addr constant [16 x i8] c"%lf%lf%lf%lf%lf\00", align 1
@.str.1 = private unnamed_addr constant [14 x i8] c"Invalid input\00", align 1
@.str.2 = private unnamed_addr constant [6 x i8] c"%.4lf\00", align 1

; Function Attrs: noinline nounwind uwtable
define dso_local i32 @main() #0 {
  %1 = alloca i32, align 4
  %2 = alloca double, align 8
  %3 = alloca double, align 8
  %4 = alloca double, align 8
  %5 = alloca double, align 8
  %6 = alloca double, align 8
  %7 = alloca double, align 8
  %8 = alloca double, align 8
  %9 = alloca double, align 8
  %10 = alloca double, align 8
  store i32 0, i32* %1, align 4
  %11 = call i32 (i8*, ...) @__isoc99_scanf(i8* getelementptr inbounds ([16 x i8], [16 x i8]* @.str, i64 0, i64 0), double* %2, double* %3, double* %4, double* %5, double* %6)
  %12 = load double, double* %2, align 8
  %13 = load double, double* %3, align 8
  %14 = fadd double %12, %13
  %15 = load double, double* %4, align 8
  %16 = fadd double %14, %15
  %17 = load double, double* %5, align 8
  %18 = fadd double %16, %17
  %19 = fdiv double %18, 2.000000e+00
  store double %19, double* %7, align 8
  %20 = load double, double* %2, align 8
  %21 = load double, double* %3, align 8
  %22 = fmul double %20, %21
  %23 = load double, double* %4, align 8
  %24 = fmul double %22, %23
  %25 = load double, double* %5, align 8
  %26 = fmul double %24, %25
  %27 = load double, double* %6, align 8
  %28 = fmul double %27, 1.000000e+02
  %29 = fdiv double %28, 3.600000e+02
  %30 = call double @cos(double %29) #3
  %31 = fmul double %26, %30
  %32 = load double, double* %6, align 8
  %33 = fmul double %32, 1.000000e+02
  %34 = fdiv double %33, 3.600000e+02
  %35 = call double @cos(double %34) #3
  %36 = fmul double %31, %35
  store double %36, double* %9, align 8
  %37 = load double, double* %7, align 8
  %38 = load double, double* %2, align 8
  %39 = fsub double %37, %38
  %40 = load double, double* %7, align 8
  %41 = load double, double* %3, align 8
  %42 = fsub double %40, %41
  %43 = fmul double %39, %42
  %44 = load double, double* %7, align 8
  %45 = load double, double* %4, align 8
  %46 = fsub double %44, %45
  %47 = fmul double %43, %46
  %48 = load double, double* %7, align 8
  %49 = load double, double* %5, align 8
  %50 = fsub double %48, %49
  %51 = fmul double %47, %50
  %52 = load double, double* %9, align 8
  %53 = fsub double %51, %52
  store double %53, double* %8, align 8
  %54 = load double, double* %8, align 8
  %55 = fcmp olt double %54, 0.000000e+00
  br i1 %55, label %56, label %58

56:                                               ; preds = %0
  %57 = call i32 (i8*, ...) @printf(i8* getelementptr inbounds ([14 x i8], [14 x i8]* @.str.1, i64 0, i64 0))
  br label %58

58:                                               ; preds = %56, %0
  %59 = load double, double* %8, align 8
  %60 = fcmp oge double %59, 0.000000e+00
  br i1 %60, label %61, label %66

61:                                               ; preds = %58
  %62 = load double, double* %8, align 8
  %63 = call double @sqrt(double %62) #3
  store double %63, double* %10, align 8
  %64 = load double, double* %10, align 8
  %65 = call i32 (i8*, ...) @printf(i8* getelementptr inbounds ([6 x i8], [6 x i8]* @.str.2, i64 0, i64 0), double %64)
  br label %66

66:                                               ; preds = %61, %58
  ret i32 0
}

declare dso_local i32 @__isoc99_scanf(i8*, ...) #1

; Function Attrs: nounwind
declare dso_local double @cos(double) #2

declare dso_local i32 @printf(i8*, ...) #1

; Function Attrs: nounwind
declare dso_local double @sqrt(double) #2


!llvm.module.flags = !{!0}
!llvm.ident = !{!1}

!0 = !{i32 1, !"wchar_size", i32 4}
!1 = !{!"clang version 10.0.0-4ubuntu1 "}
